target datalayout = "e-m:e-p270:32:32-p271:32:32-p272:64:64-i64:64-i128:128-f80:128-n8:16:32:64-S128"
target triple = "x86_64-pc-linux-gnu"

%struct.pointf_s = type { double, double }

; Function Attrs: nounwind uwtable
define double @ptToLine2(double %0, double %1, double %2, double %3, double %4, double %5) #0 {
  %7 = alloca double, align 8
  %8 = alloca %struct.pointf_s, align 8
  %9 = alloca %struct.pointf_s, align 8
  %10 = alloca %struct.pointf_s, align 8
  %11 = alloca double, align 8
  %12 = alloca double, align 8
  %13 = alloca double, align 8
  %14 = alloca i32, align 4
  %15 = getelementptr inbounds nuw { double, double }, ptr %8, i32 0, i32 0
  store double %0, ptr %15, align 8
  %16 = getelementptr inbounds nuw { double, double }, ptr %8, i32 0, i32 1
  store double %1, ptr %16, align 8
  %17 = getelementptr inbounds nuw { double, double }, ptr %9, i32 0, i32 0
  store double %2, ptr %17, align 8
  %18 = getelementptr inbounds nuw { double, double }, ptr %9, i32 0, i32 1
  store double %3, ptr %18, align 8
  %19 = getelementptr inbounds nuw { double, double }, ptr %10, i32 0, i32 0
  store double %4, ptr %19, align 8
  %20 = getelementptr inbounds nuw { double, double }, ptr %10, i32 0, i32 1
  store double %5, ptr %20, align 8
  call void @llvm.lifetime.start.p0(i64 8, ptr %11) #7
  %21 = getelementptr inbounds nuw %struct.pointf_s, ptr %9, i32 0, i32 0
  %22 = load double, ptr %21, align 8, !tbaa !9
  %23 = getelementptr inbounds nuw %struct.pointf_s, ptr %8, i32 0, i32 0
  %24 = load double, ptr %23, align 8, !tbaa !9
  %25 = fsub double %22, %24
  store double %25, ptr %11, align 8, !tbaa !18
  call void @llvm.lifetime.start.p0(i64 8, ptr %12) #7
  %26 = getelementptr inbounds nuw %struct.pointf_s, ptr %9, i32 0, i32 1
  %27 = load double, ptr %26, align 8, !tbaa !12
  %28 = getelementptr inbounds nuw %struct.pointf_s, ptr %8, i32 0, i32 1
  %29 = load double, ptr %28, align 8, !tbaa !12
  %30 = fsub double %27, %29
  store double %30, ptr %12, align 8, !tbaa !18
  call void @llvm.lifetime.start.p0(i64 8, ptr %13) #7
  %31 = getelementptr inbounds nuw %struct.pointf_s, ptr %10, i32 0, i32 1
  %32 = load double, ptr %31, align 8, !tbaa !12
  %33 = getelementptr inbounds nuw %struct.pointf_s, ptr %8, i32 0, i32 1
  %34 = load double, ptr %33, align 8, !tbaa !12
  %35 = fsub double %32, %34
  %36 = load double, ptr %11, align 8, !tbaa !18
  %37 = getelementptr inbounds nuw %struct.pointf_s, ptr %10, i32 0, i32 0
  %38 = load double, ptr %37, align 8, !tbaa !9
  %39 = getelementptr inbounds nuw %struct.pointf_s, ptr %8, i32 0, i32 0
  %40 = load double, ptr %39, align 8, !tbaa !9
  %41 = fsub double %38, %40
  %42 = load double, ptr %12, align 8, !tbaa !18
  %43 = fmul double %41, %42
  %44 = fneg double %43
  %45 = call double @llvm.fmuladd.f64(double %35, double %36, double %44)
  store double %45, ptr %13, align 8, !tbaa !18
  %46 = load double, ptr %13, align 8, !tbaa !18
  %47 = load double, ptr %13, align 8, !tbaa !18
  %48 = fmul double %47, %46
  store double %48, ptr %13, align 8, !tbaa !18
  %49 = load double, ptr %13, align 8, !tbaa !18
  %50 = fcmp olt double %49, 1.000000e-10
  br i1 %50, label %51, label %52

51:                                               ; preds = %6
  store double 0.000000e+00, ptr %7, align 8
  store i32 1, ptr %14, align 4
  br label %61

52:                                               ; preds = %6
  %53 = load double, ptr %13, align 8, !tbaa !18
  %54 = load double, ptr %11, align 8, !tbaa !18
  %55 = load double, ptr %11, align 8, !tbaa !18
  %56 = load double, ptr %12, align 8, !tbaa !18
  %57 = load double, ptr %12, align 8, !tbaa !18
  %58 = fmul double %56, %57
  %59 = call double @llvm.fmuladd.f64(double %54, double %55, double %58)
  %60 = fdiv double %53, %59
  store double %60, ptr %7, align 8
  store i32 1, ptr %14, align 4
  br label %61

61:                                               ; preds = %52, %51
  call void @llvm.lifetime.end.p0(i64 8, ptr %13) #7
  call void @llvm.lifetime.end.p0(i64 8, ptr %12) #7
  call void @llvm.lifetime.end.p0(i64 8, ptr %11) #7
  %62 = load double, ptr %7, align 8
  ret double %62
}