; Function Attrs: mustprogress nofree norecurse nosync nounwind willreturn memory(none) uwtable
define double @ptToLine2(double %0, double %1, double %2, double %3, double %4, double %5) local_unnamed_addr #6 {
  %7 = fsub double %2, %0
  %8 = fsub double %3, %1
  %9 = fsub double %5, %1
  %10 = fsub double %4, %0
  %11 = fneg double %8
  %12 = fmul double %10, %11
  %13 = tail call double @llvm.fmuladd.f64(double %9, double %7, double %12)
  %14 = fmul double %13, %13
  %15 = fcmp olt double %14, 1.000000e-10
  %16 = fmul double %8, %8
  %17 = tail call double @llvm.fmuladd.f64(double %7, double %7, double %16)
  %18 = fdiv double %14, %17
  %.0 = select i1 %15, double 0.000000e+00, double %18
  ret double %.0
}